; ModuleID = 'bench/postgres/original/simple_list.ll'
source_filename = "bench/postgres/original/simple_list.ll"
target datalayout = "e-m:e-p270:32:32-p271:32:32-p272:64:64-i64:64-i128:128-f80:128-n8:16:32:64-S128"
target triple = "x86_64-pc-linux-gnu"

; Function Attrs: nounwind uwtable
define dso_local void @simple_oid_list_append(ptr noundef captures(none) %0, i32 noundef %1) local_unnamed_addr #0 {
  %3 = tail call ptr @pg_malloc(i64 noundef 16) #6
  store ptr null, ptr %3, align 8
  %4 = getelementptr inbounds nuw i8, ptr %3, i64 8
  store i32 %1, ptr %4, align 8
  %5 = getelementptr inbounds nuw i8, ptr %0, i64 8
  %6 = load ptr, ptr %5, align 8
  %.not = icmp eq ptr %6, null
  %. = select i1 %.not, ptr %0, ptr %6
  store ptr %3, ptr %., align 8
  store ptr %3, ptr %5, align 8
  ret void
}

declare ptr @pg_malloc(i64 noundef) local_unnamed_addr #1

; Function Attrs: nofree norecurse nosync nounwind memory(read, inaccessiblemem: none) uwtable
define dso_local noundef zeroext i1 @simple_oid_list_member(ptr noundef readonly captures(none) %0, i32 noundef %1) local_unnamed_addr #2 {
  br label %3

3:                                                ; preds = %4, %2
  %.0.in = phi ptr [ %0, %2 ], [ %.0, %4 ]
  %.0 = load ptr, ptr %.0.in, align 8
  %.not.not.not.not.not.not = icmp ne ptr %.0, null
  br i1 %.not.not.not.not.not.not, label %4, label %8

4:                                                ; preds = %3
  %5 = getelementptr inbounds nuw i8, ptr %.0, i64 8
  %6 = load i32, ptr %5, align 8
  %7 = icmp eq i32 %6, %1
  br i1 %7, label %8, label %3, !llvm.loop !4

8:                                                ; preds = %3, %4
  ret i1 %.not.not.not.not.not.not
}

; Function Attrs: nounwind uwtable
define dso_local void @simple_string_list_append(ptr noundef captures(none) %0, ptr noundef readonly captures(none) %1) local_unnamed_addr #0 {
  %3 = tail call i64 @strlen(ptr noundef nonnull dereferenceable(1) %1) #7
  %4 = add i64 %3, 10
  %5 = tail call ptr @pg_malloc(i64 noundef %4) #6
  store ptr null, ptr %5, align 8
  %6 = getelementptr inbounds nuw i8, ptr %5, i64 8
  store i8 0, ptr %6, align 8
  %7 = getelementptr inbounds nuw i8, ptr %5, i64 9
  %8 = tail call ptr @strcpy(ptr noundef nonnull dereferenceable(1) %7, ptr noundef nonnull dereferenceable(1) %1) #6
  %9 = getelementptr inbounds nuw i8, ptr %0, i64 8
  %10 = load ptr, ptr %9, align 8
  %.not = icmp eq ptr %10, null
  %. = select i1 %.not, ptr %0, ptr %10
  store ptr %5, ptr %., align 8
  store ptr %5, ptr %9, align 8
  ret void
}

; Function Attrs: mustprogress nofree nounwind willreturn memory(argmem: read)
declare i64 @strlen(ptr noundef captures(none)) local_unnamed_addr #3

; Function Attrs: mustprogress nofree nounwind willreturn memory(argmem: readwrite)
declare ptr @strcpy(ptr noalias noundef returned writeonly, ptr noalias noundef readonly captures(none)) local_unnamed_addr #4

; Function Attrs: nofree nounwind memory(readwrite, inaccessiblemem: none) uwtable
define dso_local noundef zeroext i1 @simple_string_list_member(ptr noundef readonly captures(none) %0, ptr noundef readonly captures(none) %1) local_unnamed_addr #5 {
  br label %3

3:                                                ; preds = %4, %2
  %.0.in = phi ptr [ %0, %2 ], [ %.0, %4 ]
  %.0 = load ptr, ptr %.0.in, align 8
  %.not.not.not.not.not.not = icmp ne ptr %.0, null
  br i1 %.not.not.not.not.not.not, label %4, label %.loopexit

4:                                                ; preds = %3
  %5 = getelementptr inbounds nuw i8, ptr %.0, i64 9
  %6 = tail call i32 @strcmp(ptr noundef nonnull dereferenceable(1) %5, ptr noundef nonnull dereferenceable(1) %1) #7
  %7 = icmp eq i32 %6, 0
  br i1 %7, label %8, label %3, !llvm.loop !6

8:                                                ; preds = %4
  %9 = getelementptr inbounds nuw i8, ptr %.0, i64 8
  store i8 1, ptr %9, align 8
  br label %.loopexit

.loopexit:                                        ; preds = %3, %8
  ret i1 %.not.not.not.not.not.not
}

; Function Attrs: mustprogress nofree nounwind willreturn memory(argmem: read)
declare i32 @strcmp(ptr noundef captures(none), ptr noundef captures(none)) local_unnamed_addr #3

; Function Attrs: nounwind uwtable
define dso_local void @simple_oid_list_destroy(ptr noundef readonly captures(none) %0) local_unnamed_addr #0 {
  %2 = load ptr, ptr %0, align 8
  %.not5 = icmp eq ptr %2, null
  br i1 %.not5, label %._crit_edge, label %.lr.ph

.lr.ph:                                           ; preds = %1, %.lr.ph
  %.06 = phi ptr [ %3, %.lr.ph ], [ %2, %1 ]
  %3 = load ptr, ptr %.06, align 8
  tail call void @pg_free(ptr noundef nonnull %.06) #6
  %.not = icmp eq ptr %3, null
  br i1 %.not, label %._crit_edge, label %.lr.ph, !llvm.loop !7

._crit_edge:                                      ; preds = %.lr.ph, %1
  ret void
}

declare void @pg_free(ptr noundef) local_unnamed_addr #1

; Function Attrs: nounwind uwtable
define dso_local void @simple_string_list_destroy(ptr noundef readonly captures(none) %0) local_unnamed_addr #0 {
  %2 = load ptr, ptr %0, align 8
  %.not5 = icmp eq ptr %2, null
  br i1 %.not5, label %._crit_edge, label %.lr.ph

.lr.ph:                                           ; preds = %1, %.lr.ph
  %.06 = phi ptr [ %3, %.lr.ph ], [ %2, %1 ]
  %3 = load ptr, ptr %.06, align 8
  tail call void @pg_free(ptr noundef nonnull %.06) #6
  %.not = icmp eq ptr %3, null
  br i1 %.not, label %._crit_edge, label %.lr.ph, !llvm.loop !8

._crit_edge:                                      ; preds = %.lr.ph, %1
  ret void
}

; Function Attrs: nofree norecurse nosync nounwind memory(read, inaccessiblemem: none) uwtable
define dso_local ptr @simple_string_list_not_touched(ptr noundef readonly captures(none) %0) local_unnamed_addr #2 {
  br label %2

2:                                                ; preds = %3, %1
  %.0.in = phi ptr [ %0, %1 ], [ %.0, %3 ]
  %.0 = load ptr, ptr %.0.in, align 8
  %.not = icmp eq ptr %.0, null
  br i1 %.not, label %.loopexit, label %3

3:                                                ; preds = %2
  %4 = getelementptr inbounds nuw i8, ptr %.0, i64 8
  %5 = load i8, ptr %4, align 8, !range !9, !noundef !10
  %6 = trunc nuw i8 %5 to i1
  br i1 %6, label %2, label %7, !llvm.loop !11

7:                                                ; preds = %3
  %8 = getelementptr inbounds nuw i8, ptr %.0, i64 9
  br label %.loopexit

.loopexit:                                        ; preds = %2, %7
  %.06 = phi ptr [ %8, %7 ], [ null, %2 ]
  ret ptr %.06
}

; Function Attrs: nounwind uwtable
define dso_local void @simple_ptr_list_append(ptr noundef captures(none) %0, ptr noundef %1) local_unnamed_addr #0 {
  %3 = tail call ptr @pg_malloc(i64 noundef 16) #6
  store ptr null, ptr %3, align 8
  %4 = getelementptr inbounds nuw i8, ptr %3, i64 8
  store ptr %1, ptr %4, align 8
  %5 = getelementptr inbounds nuw i8, ptr %0, i64 8
  %6 = load ptr, ptr %5, align 8
  %.not = icmp eq ptr %6, null
  %. = select i1 %.not, ptr %0, ptr %6
  store ptr %3, ptr %., align 8
  store ptr %3, ptr %5, align 8
  ret void
}

; Function Attrs: nounwind uwtable
define dso_local void @simple_ptr_list_destroy(ptr noundef readonly captures(none) %0) local_unnamed_addr #0 {
  %2 = load ptr, ptr %0, align 8
  %.not5 = icmp eq ptr %2, null
  br i1 %.not5, label %._crit_edge, label %.lr.ph

.lr.ph:                                           ; preds = %1, %.lr.ph
  %.06 = phi ptr [ %3, %.lr.ph ], [ %2, %1 ]
  %3 = load ptr, ptr %.06, align 8
  tail call void @pg_free(ptr noundef nonnull %.06) #6
  %.not = icmp eq ptr %3, null
  br i1 %.not, label %._crit_edge, label %.lr.ph, !llvm.loop !12

._crit_edge:                                      ; preds = %.lr.ph, %1
  ret void
}


!llvm.module.flags = !{!0, !1, !2, !3}

!0 = !{i32 1, !"wchar_size", i32 4}
!1 = !{i32 8, !"PIC Level", i32 2}
!2 = !{i32 7, !"PIE Level", i32 2}
!3 = !{i32 7, !"uwtable", i32 2}
!4 = distinct !{!4, !5}
!5 = !{!"llvm.loop.mustprogress"}
!6 = distinct !{!6, !5}
!7 = distinct !{!7, !5}
!8 = distinct !{!8, !5}
!9 = !{i8 0, i8 2}
!10 = !{}
!11 = distinct !{!11, !5}
!12 = distinct !{!12, !5}
